target datalayout = "e-m:e-p270:32:32-p271:32:32-p272:64:64-i64:64-i128:128-f80:128-n8:16:32:64-S128"
target triple = "x86_64-unknown-linux-gnu"

%"struct.std::_Rb_tree_key_compare" = type { %"struct.std::less" }
%"struct.std::less" = type { i8 }
%"struct.std::_Rb_tree_header" = type { %"struct.std::_Rb_tree_node_base", i64 }
%"struct.std::_Rb_tree_node_base" = type { i32, ptr, ptr, ptr }
%"class.cvc5::internal::theory::quantifiers::RelevantDomain" = type { %"class.cvc5::internal::theory::QuantifiersUtil", %"class.std::map.5", ptr, ptr, ptr, i8, %"class.std::map.10" }
%"class.cvc5::internal::theory::QuantifiersUtil" = type { %"class.cvc5::internal::EnvObj" }
%"class.cvc5::internal::EnvObj" = type { ptr, ptr }
%"class.std::map.5" = type { %"class.std::_Rb_tree.6" }
%"class.std::_Rb_tree.6" = type { %"struct.std::_Rb_tree<cvc5::internal::NodeTemplate<true>, std::pair<const cvc5::internal::NodeTemplate<true>, std::map<unsigned long, cvc5::internal::theory::quantifiers::RelevantDomain::RDomain *>>, std::_Select1st<std::pair<const cvc5::internal::NodeTemplate<true>, std::map<unsigned long, cvc5::internal::theory::quantifiers::RelevantDomain::RDomain *>>>, std::less<cvc5::internal::NodeTemplate<true>>>::_Rb_tree_impl" }
%"struct.std::_Rb_tree<cvc5::internal::NodeTemplate<true>, std::pair<const cvc5::internal::NodeTemplate<true>, std::map<unsigned long, cvc5::internal::theory::quantifiers::RelevantDomain::RDomain *>>, std::_Select1st<std::pair<const cvc5::internal::NodeTemplate<true>, std::map<unsigned long, cvc5::internal::theory::quantifiers::RelevantDomain::RDomain *>>>, std::less<cvc5::internal::NodeTemplate<true>>>::_Rb_tree_impl" = type { %"struct.std::_Rb_tree_key_compare", %"struct.std::_Rb_tree_header" }
%"class.std::map.10" = type { %"class.std::_Rb_tree.11" }
%"class.std::_Rb_tree.11" = type { %"struct.std::_Rb_tree<bool, std::pair<const bool, std::map<bool, std::map<cvc5::internal::NodeTemplate<true>, cvc5::internal::theory::quantifiers::RelevantDomain::RDomainLit>>>, std::_Select1st<std::pair<const bool, std::map<bool, std::map<cvc5::internal::NodeTemplate<true>, cvc5::internal::theory::quantifiers::RelevantDomain::RDomainLit>>>>, std::less<bool>>::_Rb_tree_impl" }
%"struct.std::_Rb_tree<bool, std::pair<const bool, std::map<bool, std::map<cvc5::internal::NodeTemplate<true>, cvc5::internal::theory::quantifiers::RelevantDomain::RDomainLit>>>, std::_Select1st<std::pair<const bool, std::map<bool, std::map<cvc5::internal::NodeTemplate<true>, cvc5::internal::theory::quantifiers::RelevantDomain::RDomainLit>>>>, std::less<bool>>::_Rb_tree_impl" = type { %"struct.std::_Rb_tree_key_compare.15", %"struct.std::_Rb_tree_header" }
%"struct.std::_Rb_tree_key_compare.15" = type { %"struct.std::less.16" }
%"struct.std::less.16" = type { i8 }

; Function Attrs: mustprogress nounwind uwtable
define linkonce_odr hidden void @_ZNSt15__new_allocatorISt13_Rb_tree_nodeISt4pairIKbSt3mapIbS3_IN4cvc58internal12NodeTemplateILb1EEENS5_6theory11quantifiers14RelevantDomain10RDomainLitESt4lessIS7_ESaIS1_IKS7_SB_EEESC_IbESaIS1_IS2_SH_EEEEEEC2Ev(ptr noundef nonnull align 1 dereferenceable(1) %this) unnamed_addr #5 comdat align 2 {
entry:
  %this.addr = alloca ptr, align 8
  store ptr %this, ptr %this.addr, align 8
  ret void
}

; Function Attrs: noreturn nounwind uwtable
define linkonce_odr hidden void @__clang_call_terminate(ptr noundef %0) #9 comdat {
  %2 = call ptr @__cxa_begin_catch(ptr %0) #3
  call void @_ZSt9terminatev() #15
  unreachable
}

; Function Attrs: mustprogress nounwind uwtable
define linkonce_odr hidden void @_ZNSt15_Rb_tree_header8_M_resetEv(ptr noundef nonnull align 8 dereferenceable(40) %this) #5 comdat align 2 {
entry:
  %this.addr = alloca ptr, align 8
  store ptr %this, ptr %this.addr, align 8
  %this1 = load ptr, ptr %this.addr, align 8
  %_M_header = getelementptr inbounds %"struct.std::_Rb_tree_header", ptr %this1, i32 0, i32 0
  %_M_parent = getelementptr inbounds %"struct.std::_Rb_tree_node_base", ptr %_M_header, i32 0, i32 1
  store ptr null, ptr %_M_parent, align 8
  %_M_header2 = getelementptr inbounds %"struct.std::_Rb_tree_header", ptr %this1, i32 0, i32 0
  %_M_header3 = getelementptr inbounds %"struct.std::_Rb_tree_header", ptr %this1, i32 0, i32 0
  %_M_left = getelementptr inbounds %"struct.std::_Rb_tree_node_base", ptr %_M_header3, i32 0, i32 2
  store ptr %_M_header2, ptr %_M_left, align 8
  %_M_header4 = getelementptr inbounds %"struct.std::_Rb_tree_header", ptr %this1, i32 0, i32 0
  %_M_header5 = getelementptr inbounds %"struct.std::_Rb_tree_header", ptr %this1, i32 0, i32 0
  %_M_right = getelementptr inbounds %"struct.std::_Rb_tree_node_base", ptr %_M_header5, i32 0, i32 3
  store ptr %_M_header4, ptr %_M_right, align 8
  %_M_node_count = getelementptr inbounds %"struct.std::_Rb_tree_header", ptr %this1, i32 0, i32 1
  store i64 0, ptr %_M_node_count, align 8
  ret void
}

; Function Attrs: mustprogress nounwind uwtable
define linkonce_odr hidden void @_ZNSt15__new_allocatorISt13_Rb_tree_nodeISt4pairIKN4cvc58internal12NodeTemplateILb1EEESt3mapImPNS3_6theory11quantifiers14RelevantDomain7RDomainESt4lessImESaIS1_IKmSC_EEEEEEC2Ev(ptr noundef nonnull align 1 dereferenceable(1) %this) unnamed_addr #5 comdat align 2 {
entry:
  %this.addr = alloca ptr, align 8
  store ptr %this, ptr %this.addr, align 8
  ret void
}

; Function Attrs: mustprogress nounwind uwtable
define linkonce_odr hidden void @_ZNSt20_Rb_tree_key_compareISt4lessIbEEC2Ev(ptr noundef nonnull align 1 dereferenceable(1) %this) unnamed_addr #5 comdat align 2 {
entry:
  %this.addr = alloca ptr, align 8
  store ptr %this, ptr %this.addr, align 8
  ret void
}

; Function Attrs: mustprogress nounwind uwtable
define linkonce_odr hidden void @_ZNSaISt13_Rb_tree_nodeISt4pairIKbSt3mapIbS2_IN4cvc58internal12NodeTemplateILb1EEENS4_6theory11quantifiers14RelevantDomain10RDomainLitESt4lessIS6_ESaIS0_IKS6_SA_EEESB_IbESaIS0_IS1_SG_EEEEEEC2Ev(ptr noundef nonnull align 1 dereferenceable(1) %this) unnamed_addr #5 comdat align 2 {
entry:
  %this.addr = alloca ptr, align 8
  store ptr %this, ptr %this.addr, align 8
  %this1 = load ptr, ptr %this.addr, align 8
  call void @_ZNSt15__new_allocatorISt13_Rb_tree_nodeISt4pairIKbSt3mapIbS3_IN4cvc58internal12NodeTemplateILb1EEENS5_6theory11quantifiers14RelevantDomain10RDomainLitESt4lessIS7_ESaIS1_IKS7_SB_EEESC_IbESaIS1_IS2_SH_EEEEEEC2Ev(ptr noundef nonnull align 1 dereferenceable(1) %this1) #3
  ret void
}

; Function Attrs: mustprogress nounwind uwtable
define linkonce_odr hidden void @_ZNSt15_Rb_tree_headerC2Ev(ptr noundef nonnull align 8 dereferenceable(40) %this) unnamed_addr #5 comdat align 2 personality ptr @__gxx_personality_v0 {
entry:
  %this.addr = alloca ptr, align 8
  store ptr %this, ptr %this.addr, align 8
  %this1 = load ptr, ptr %this.addr, align 8
  %_M_header2 = getelementptr inbounds %"struct.std::_Rb_tree_header", ptr %this1, i32 0, i32 0
  %_M_color = getelementptr inbounds %"struct.std::_Rb_tree_node_base", ptr %_M_header2, i32 0, i32 0
  store i32 0, ptr %_M_color, align 8
  invoke void @_ZNSt15_Rb_tree_header8_M_resetEv(ptr noundef nonnull align 8 dereferenceable(40) %this1)
          to label %invoke.cont unwind label %terminate.lpad

invoke.cont:                                      ; preds = %entry
  ret void

terminate.lpad:                                   ; preds = %entry
  %0 = landingpad { ptr, i32 }
          catch ptr null
  %1 = extractvalue { ptr, i32 } %0, 0
  call void @__clang_call_terminate(ptr %1) #15
  unreachable
}

; Function Attrs: mustprogress nounwind uwtable
define linkonce_odr hidden void @_ZNSt20_Rb_tree_key_compareISt4lessIN4cvc58internal12NodeTemplateILb1EEEEEC2Ev(ptr noundef nonnull align 1 dereferenceable(1) %this) unnamed_addr #5 comdat align 2 {
entry:
  %this.addr = alloca ptr, align 8
  store ptr %this, ptr %this.addr, align 8
  ret void
}

; Function Attrs: mustprogress nounwind uwtable
define linkonce_odr hidden void @_ZNSaISt13_Rb_tree_nodeISt4pairIKN4cvc58internal12NodeTemplateILb1EEESt3mapImPNS2_6theory11quantifiers14RelevantDomain7RDomainESt4lessImESaIS0_IKmSB_EEEEEEC2Ev(ptr noundef nonnull align 1 dereferenceable(1) %this) unnamed_addr #5 comdat align 2 {
entry:
  %this.addr = alloca ptr, align 8
  store ptr %this, ptr %this.addr, align 8
  %this1 = load ptr, ptr %this.addr, align 8
  call void @_ZNSt15__new_allocatorISt13_Rb_tree_nodeISt4pairIKN4cvc58internal12NodeTemplateILb1EEESt3mapImPNS3_6theory11quantifiers14RelevantDomain7RDomainESt4lessImESaIS1_IKmSC_EEEEEEC2Ev(ptr noundef nonnull align 1 dereferenceable(1) %this1) #3
  ret void
}

; Function Attrs: mustprogress nounwind uwtable
define linkonce_odr hidden void @_ZNSt8_Rb_treeIbSt4pairIKbSt3mapIbS2_IN4cvc58internal12NodeTemplateILb1EEENS4_6theory11quantifiers14RelevantDomain10RDomainLitESt4lessIS6_ESaIS0_IKS6_SA_EEESB_IbESaIS0_IS1_SG_EEEESt10_Select1stISL_ESH_SaISL_EE13_Rb_tree_implISH_Lb1EEC2Ev(ptr noundef nonnull align 8 dereferenceable(48) %this) unnamed_addr #5 comdat align 2 {
entry:
  %this.addr = alloca ptr, align 8
  store ptr %this, ptr %this.addr, align 8
  %this1 = load ptr, ptr %this.addr, align 8
  call void @_ZNSaISt13_Rb_tree_nodeISt4pairIKbSt3mapIbS2_IN4cvc58internal12NodeTemplateILb1EEENS4_6theory11quantifiers14RelevantDomain10RDomainLitESt4lessIS6_ESaIS0_IKS6_SA_EEESB_IbESaIS0_IS1_SG_EEEEEEC2Ev(ptr noundef nonnull align 1 dereferenceable(1) %this1) #3
  call void @_ZNSt20_Rb_tree_key_compareISt4lessIbEEC2Ev(ptr noundef nonnull align 1 dereferenceable(1) %this1) #3
  %0 = getelementptr inbounds i8, ptr %this1, i64 8
  call void @_ZNSt15_Rb_tree_headerC2Ev(ptr noundef nonnull align 8 dereferenceable(40) %0) #3
  ret void
}

; Function Attrs: mustprogress nounwind uwtable
define linkonce_odr hidden void @_ZNSt8_Rb_treeIN4cvc58internal12NodeTemplateILb1EEESt4pairIKS3_St3mapImPNS1_6theory11quantifiers14RelevantDomain7RDomainESt4lessImESaIS4_IKmSB_EEEESt10_Select1stISI_ESC_IS3_ESaISI_EE13_Rb_tree_implISL_Lb1EEC2Ev(ptr noundef nonnull align 8 dereferenceable(48) %this) unnamed_addr #5 comdat align 2 {
entry:
  %this.addr = alloca ptr, align 8
  store ptr %this, ptr %this.addr, align 8
  %this1 = load ptr, ptr %this.addr, align 8
  call void @_ZNSaISt13_Rb_tree_nodeISt4pairIKN4cvc58internal12NodeTemplateILb1EEESt3mapImPNS2_6theory11quantifiers14RelevantDomain7RDomainESt4lessImESaIS0_IKmSB_EEEEEEC2Ev(ptr noundef nonnull align 1 dereferenceable(1) %this1) #3
  call void @_ZNSt20_Rb_tree_key_compareISt4lessIN4cvc58internal12NodeTemplateILb1EEEEEC2Ev(ptr noundef nonnull align 1 dereferenceable(1) %this1) #3
  %0 = getelementptr inbounds i8, ptr %this1, i64 8
  call void @_ZNSt15_Rb_tree_headerC2Ev(ptr noundef nonnull align 8 dereferenceable(40) %0) #3
  ret void
}

; Function Attrs: mustprogress nounwind uwtable
define linkonce_odr hidden void @_ZNSt8_Rb_treeIbSt4pairIKbSt3mapIbS2_IN4cvc58internal12NodeTemplateILb1EEENS4_6theory11quantifiers14RelevantDomain10RDomainLitESt4lessIS6_ESaIS0_IKS6_SA_EEESB_IbESaIS0_IS1_SG_EEEESt10_Select1stISL_ESH_SaISL_EEC2Ev(ptr noundef nonnull align 8 dereferenceable(48) %this) unnamed_addr #5 comdat align 2 {
entry:
  %this.addr = alloca ptr, align 8
  store ptr %this, ptr %this.addr, align 8
  %this1 = load ptr, ptr %this.addr, align 8
  %_M_impl = getelementptr inbounds %"class.std::_Rb_tree.11", ptr %this1, i32 0, i32 0
  call void @_ZNSt8_Rb_treeIbSt4pairIKbSt3mapIbS2_IN4cvc58internal12NodeTemplateILb1EEENS4_6theory11quantifiers14RelevantDomain10RDomainLitESt4lessIS6_ESaIS0_IKS6_SA_EEESB_IbESaIS0_IS1_SG_EEEESt10_Select1stISL_ESH_SaISL_EE13_Rb_tree_implISH_Lb1EEC2Ev(ptr noundef nonnull align 8 dereferenceable(48) %_M_impl) #3
  ret void
}

; Function Attrs: mustprogress nounwind uwtable
define linkonce_odr hidden void @_ZNSt8_Rb_treeIN4cvc58internal12NodeTemplateILb1EEESt4pairIKS3_St3mapImPNS1_6theory11quantifiers14RelevantDomain7RDomainESt4lessImESaIS4_IKmSB_EEEESt10_Select1stISI_ESC_IS3_ESaISI_EEC2Ev(ptr noundef nonnull align 8 dereferenceable(48) %this) unnamed_addr #5 comdat align 2 {
entry:
  %this.addr = alloca ptr, align 8
  store ptr %this, ptr %this.addr, align 8
  %this1 = load ptr, ptr %this.addr, align 8
  %_M_impl = getelementptr inbounds %"class.std::_Rb_tree.6", ptr %this1, i32 0, i32 0
  call void @_ZNSt8_Rb_treeIN4cvc58internal12NodeTemplateILb1EEESt4pairIKS3_St3mapImPNS1_6theory11quantifiers14RelevantDomain7RDomainESt4lessImESaIS4_IKmSB_EEEESt10_Select1stISI_ESC_IS3_ESaISI_EE13_Rb_tree_implISL_Lb1EEC2Ev(ptr noundef nonnull align 8 dereferenceable(48) %_M_impl) #3
  ret void
}

; Function Attrs: mustprogress nounwind uwtable
define linkonce_odr hidden void @_ZNSt3mapIbS_IbS_IN4cvc58internal12NodeTemplateILb1EEENS1_6theory11quantifiers14RelevantDomain10RDomainLitESt4lessIS3_ESaISt4pairIKS3_S7_EEES8_IbESaISA_IKbSE_EEESF_SaISA_ISG_SJ_EEEC2Ev(ptr noundef nonnull align 8 dereferenceable(48) %this) unnamed_addr #5 comdat align 2 {
entry:
  %this.addr = alloca ptr, align 8
  store ptr %this, ptr %this.addr, align 8
  %this1 = load ptr, ptr %this.addr, align 8
  %_M_t = getelementptr inbounds %"class.std::map.10", ptr %this1, i32 0, i32 0
  call void @_ZNSt8_Rb_treeIbSt4pairIKbSt3mapIbS2_IN4cvc58internal12NodeTemplateILb1EEENS4_6theory11quantifiers14RelevantDomain10RDomainLitESt4lessIS6_ESaIS0_IKS6_SA_EEESB_IbESaIS0_IS1_SG_EEEESt10_Select1stISL_ESH_SaISL_EEC2Ev(ptr noundef nonnull align 8 dereferenceable(48) %_M_t) #3
  ret void
}

; Function Attrs: mustprogress nounwind uwtable
define linkonce_odr hidden void @_ZNSt3mapIN4cvc58internal12NodeTemplateILb1EEES_ImPNS1_6theory11quantifiers14RelevantDomain7RDomainESt4lessImESaISt4pairIKmS8_EEES9_IS3_ESaISB_IKS3_SF_EEEC2Ev(ptr noundef nonnull align 8 dereferenceable(48) %this) unnamed_addr #5 comdat align 2 {
entry:
  %this.addr = alloca ptr, align 8
  store ptr %this, ptr %this.addr, align 8
  %this1 = load ptr, ptr %this.addr, align 8
  %_M_t = getelementptr inbounds %"class.std::map.5", ptr %this1, i32 0, i32 0
  call void @_ZNSt8_Rb_treeIN4cvc58internal12NodeTemplateILb1EEESt4pairIKS3_St3mapImPNS1_6theory11quantifiers14RelevantDomain7RDomainESt4lessImESaIS4_IKmSB_EEEESt10_Select1stISI_ESC_IS3_ESaISI_EEC2Ev(ptr noundef nonnull align 8 dereferenceable(48) %_M_t) #3
  ret void
}

; Function Attrs: mustprogress uwtable
define hidden void @_ZN4cvc58internal6theory11quantifiers14RelevantDomainC2ERNS0_3EnvERNS2_16QuantifiersStateERNS2_19QuantifiersRegistryERNS2_12TermRegistryE(ptr noundef nonnull align 8 dereferenceable(144) %this, ptr noundef nonnull align 8 dereferenceable(576) %env, ptr noundef nonnull align 8 dereferenceable(248) %qs, ptr noundef nonnull align 8 dereferenceable(488) %qr, ptr noundef nonnull align 8 dereferenceable(208) %tr) unnamed_addr #4 align 2 {
entry:
  %this.addr = alloca ptr, align 8
  %env.addr = alloca ptr, align 8
  %qs.addr = alloca ptr, align 8
  %qr.addr = alloca ptr, align 8
  %tr.addr = alloca ptr, align 8
  store ptr %this, ptr %this.addr, align 8
  store ptr %env, ptr %env.addr, align 8
  store ptr %qs, ptr %qs.addr, align 8
  store ptr %qr, ptr %qr.addr, align 8
  store ptr %tr, ptr %tr.addr, align 8
  %this1 = load ptr, ptr %this.addr, align 8
  %0 = load ptr, ptr %env.addr, align 8
  call void @_ZN4cvc58internal6theory15QuantifiersUtilC2ERNS0_3EnvE(ptr noundef nonnull align 8 dereferenceable(16) %this1, ptr noundef nonnull align 8 dereferenceable(576) %0)
  store ptr getelementptr inbounds ({ [9 x ptr] }, ptr @_ZTVN4cvc58internal6theory11quantifiers14RelevantDomainE, i32 0, i32 0, i32 2), ptr %this1, align 8
  %d_rel_doms = getelementptr inbounds %"class.cvc5::internal::theory::quantifiers::RelevantDomain", ptr %this1, i32 0, i32 1
  call void @_ZNSt3mapIN4cvc58internal12NodeTemplateILb1EEES_ImPNS1_6theory11quantifiers14RelevantDomain7RDomainESt4lessImESaISt4pairIKmS8_EEES9_IS3_ESaISB_IKS3_SF_EEEC2Ev(ptr noundef nonnull align 8 dereferenceable(48) %d_rel_doms) #3
  %d_qs = getelementptr inbounds %"class.cvc5::internal::theory::quantifiers::RelevantDomain", ptr %this1, i32 0, i32 2
  %1 = load ptr, ptr %qs.addr, align 8
  store ptr %1, ptr %d_qs, align 8
  %d_qreg = getelementptr inbounds %"class.cvc5::internal::theory::quantifiers::RelevantDomain", ptr %this1, i32 0, i32 3
  %2 = load ptr, ptr %qr.addr, align 8
  store ptr %2, ptr %d_qreg, align 8
  %d_treg = getelementptr inbounds %"class.cvc5::internal::theory::quantifiers::RelevantDomain", ptr %this1, i32 0, i32 4
  %3 = load ptr, ptr %tr.addr, align 8
  store ptr %3, ptr %d_treg, align 8
  %d_rel_dom_lit = getelementptr inbounds %"class.cvc5::internal::theory::quantifiers::RelevantDomain", ptr %this1, i32 0, i32 6
  call void @_ZNSt3mapIbS_IbS_IN4cvc58internal12NodeTemplateILb1EEENS1_6theory11quantifiers14RelevantDomain10RDomainLitESt4lessIS3_ESaISt4pairIKS3_S7_EEES8_IbESaISA_IKbSE_EEESF_SaISA_ISG_SJ_EEEC2Ev(ptr noundef nonnull align 8 dereferenceable(48) %d_rel_dom_lit) #3
  %d_is_computed = getelementptr inbounds %"class.cvc5::internal::theory::quantifiers::RelevantDomain", ptr %this1, i32 0, i32 5
  store i8 0, ptr %d_is_computed, align 8
  ret void
}